	.file	"generation.c"
	.text
.Ltext0:
	.cfi_sections	.debug_frame
	.file 0 "C://msys64//home//alexa//ballPhysics//src" "generation.c"
	.globl	genTrajectories
	.def	genTrajectories;	.scl	2;	.type	32;	.endef
	.seh_proc	genTrajectories
genTrajectories:
.LFB2:
	.file 1 "generation.c"
	.loc 1 7 1
	.cfi_startproc
	pushq	%rbp
	.seh_pushreg	%rbp
	.cfi_def_cfa_offset 16
	.cfi_offset 6, -16
	pushq	%rbx
	.seh_pushreg	%rbx
	.cfi_def_cfa_offset 24
	.cfi_offset 3, -24
	subq	$40, %rsp
	.seh_stackalloc	40
	.cfi_def_cfa_offset 64
	leaq	32(%rsp), %rbp
	.seh_setframe	%rbp, 32
	.cfi_def_cfa 6, 32
	.seh_endprologue
	movq	%rcx, %rbx
	movq	(%rbx), %rax
	movq	8(%rbx), %rdx
	movq	%rax, -32(%rbp)
	movq	%rdx, -24(%rbp)
	.loc 1 10 12
	movl	$0, -4(%rbp)
	.loc 1 10 5
	jmp	.L2
.L5:
	.loc 1 16 12
	cmpl	$0, -4(%rbp)
	jne	.L3
.LBB2:
	.loc 1 16 28 discriminator 1
	movq	-32(%rbp), %rax
	.loc 1 16 33 discriminator 1
	movl	-4(%rbp), %edx
	movslq	%edx, %rdx
	salq	$5, %rdx
	addq	%rdx, %rax
	.loc 1 16 41 discriminator 1
	movss	.LC0(%rip), %xmm0
	movss	%xmm0, 12(%rax)
	pxor	%xmm0, %xmm0
	movss	%xmm0, 16(%rax)
.LBE2:
	jmp	.L4
.L3:
	.loc 1 17 17
	cmpl	$1, -4(%rbp)
	jne	.L4
.LBB3:
	.loc 1 17 33 discriminator 1
	movq	-32(%rbp), %rax
	.loc 1 17 38 discriminator 1
	movl	-4(%rbp), %edx
	movslq	%edx, %rdx
	salq	$5, %rdx
	addq	%rdx, %rax
	.loc 1 17 46 discriminator 1
	movss	.LC2(%rip), %xmm0
	movss	%xmm0, 12(%rax)
	movss	.LC2(%rip), %xmm0
	movss	%xmm0, 16(%rax)
.L4:
.LBE3:
	.loc 1 10 36 discriminator 2
	addl	$1, -4(%rbp)
.L2:
	.loc 1 10 28 discriminator 1
	movl	-24(%rbp), %eax
	.loc 1 10 19 discriminator 1
	cmpl	%eax, -4(%rbp)
	jl	.L5
	.loc 1 20 1
	nop
	nop
	addq	$40, %rsp
	popq	%rbx
	.cfi_restore 3
	popq	%rbp
	.cfi_restore 6
	.cfi_def_cfa 7, -24
	ret
	.cfi_endproc
.LFE2:
	.seh_endproc
	.globl	genLocations
	.def	genLocations;	.scl	2;	.type	32;	.endef
	.seh_proc	genLocations
genLocations:
.LFB3:
	.loc 1 24 1
	.cfi_startproc
	pushq	%rbp
	.seh_pushreg	%rbp
	.cfi_def_cfa_offset 16
	.cfi_offset 6, -16
	pushq	%rbx
	.seh_pushreg	%rbx
	.cfi_def_cfa_offset 24
	.cfi_offset 3, -24
	subq	$40, %rsp
	.seh_stackalloc	40
	.cfi_def_cfa_offset 64
	leaq	32(%rsp), %rbp
	.seh_setframe	%rbp, 32
	.cfi_def_cfa 6, 32
	.seh_endprologue
	movq	%rcx, %rbx
	movq	(%rbx), %rax
	movq	8(%rbx), %rdx
	movq	%rax, -32(%rbp)
	movq	%rdx, -24(%rbp)
	.loc 1 27 12
	movl	$0, -4(%rbp)
	.loc 1 27 5
	jmp	.L7
.L10:
	.loc 1 33 12
	cmpl	$0, -4(%rbp)
	jne	.L8
.LBB4:
	.loc 1 33 28 discriminator 1
	movq	-32(%rbp), %rax
	.loc 1 33 33 discriminator 1
	movl	-4(%rbp), %edx
	movslq	%edx, %rdx
	salq	$5, %rdx
	addq	%rdx, %rax
	.loc 1 33 41 discriminator 1
	movss	.LC3(%rip), %xmm0
	movss	%xmm0, 4(%rax)
	movss	.LC4(%rip), %xmm0
	movss	%xmm0, 8(%rax)
.LBE4:
	jmp	.L9
.L8:
	.loc 1 34 17
	cmpl	$1, -4(%rbp)
	jne	.L9
.LBB5:
	.loc 1 34 33 discriminator 1
	movq	-32(%rbp), %rax
	.loc 1 34 38 discriminator 1
	movl	-4(%rbp), %edx
	movslq	%edx, %rdx
	salq	$5, %rdx
	addq	%rdx, %rax
	.loc 1 34 46 discriminator 1
	movss	.LC5(%rip), %xmm0
	movss	%xmm0, 4(%rax)
	movss	.LC5(%rip), %xmm0
	movss	%xmm0, 8(%rax)
.L9:
.LBE5:
	.loc 1 27 36 discriminator 2
	addl	$1, -4(%rbp)
.L7:
	.loc 1 27 28 discriminator 1
	movl	-24(%rbp), %eax
	.loc 1 27 19 discriminator 1
	cmpl	%eax, -4(%rbp)
	jl	.L10
	.loc 1 37 1
	nop
	nop
	addq	$40, %rsp
	popq	%rbx
	.cfi_restore 3
	popq	%rbp
	.cfi_restore 6
	.cfi_def_cfa 7, -24
	ret
	.cfi_endproc
.LFE3:
	.seh_endproc
	.section .rdata,"dr"
	.align 4
.LC0:
	.long	-1035468800
	.align 4
.LC2:
	.long	-1039307810
	.align 4
.LC3:
	.long	1128792064
	.align 4
.LC4:
	.long	1112014848
	.align 4
.LC5:
	.long	1125912806
	.text
.Letext0:
	.file 2 "C:/msys64/ucrt64/include/raylib.h"
	.file 3 "../include/ballPhysics.h"