	.file	"common.c"
	.text
.Ltext0:
	.cfi_sections	.debug_frame
	.file 0 "C://msys64//home//alexa//ballPhysics//src" "common.c"
	.globl	randomColor
	.def	randomColor;	.scl	2;	.type	32;	.endef
	.seh_proc	randomColor
randomColor:
.LFB2:
	.file 1 "common.c"
	.loc 1 7 1
	.cfi_startproc
	pushq	%rbp
	.seh_pushreg	%rbp
	.cfi_def_cfa_offset 16
	.cfi_offset 6, -16
	movq	%rsp, %rbp
	.seh_setframe	%rbp, 0
	.cfi_def_cfa_register 6
	subq	$32, %rsp
	.seh_stackalloc	32
	.seh_endprologue
	movl	%ecx, 16(%rbp)
	.loc 1 10 8
	cmpl	$1, 16(%rbp)
	jne	.L2
	.loc 1 10 41 discriminator 1
	movl	$6, %edx
	movl	$0, %ecx
	call	GetRandomValue
	.loc 1 10 40 discriminator 1
	cltq
	leaq	0(,%rax,4), %rdx
	leaq	colors.0(%rip), %rax
	movl	(%rdx,%rax), %eax
	.loc 1 10 40 is_stmt 0
	jmp	.L4
.L2:
	.loc 1 11 24 is_stmt 1
	movl	$5, %edx
	movl	$0, %ecx
	call	GetRandomValue
	.loc 1 11 23 discriminator 1
	cltq
	leaq	0(,%rax,4), %rdx
	leaq	colors.0(%rip), %rax
	movl	(%rdx,%rax), %eax
.L4:
	.loc 1 12 1
	addq	$32, %rsp
	popq	%rbp
	.cfi_restore 6
	.cfi_def_cfa 7, 8
	ret
	.cfi_endproc
.LFE2:
	.seh_endproc
	.data
	.align 16
colors.0:
	.byte	-26
	.byte	41
	.byte	55
	.byte	-1
	.byte	-1
	.byte	-95
	.byte	0
	.byte	-1
	.byte	-3
	.byte	-7
	.byte	0
	.byte	-1
	.byte	0
	.byte	-28
	.byte	48
	.byte	-1
	.byte	0
	.byte	121
	.byte	-15
	.byte	-1
	.byte	-121
	.byte	60
	.byte	-66
	.byte	-1
	.text
.Letext0:
	.file 2 "C:/msys64/ucrt64/include/raylib.h"
	.file 3 "../include/ballPhysics.h"