	.file	"user.c"
	.text
.Ltext0:
	.cfi_sections	.debug_frame
	.file 0 "C://msys64//home//alexa//ballPhysics//src" "user.c"
	.globl	handleSpeedMod
	.def	handleSpeedMod;	.scl	2;	.type	32;	.endef
	.seh_proc	handleSpeedMod
handleSpeedMod:
.LFB2:
	.file 1 "user.c"
	.loc 1 11 1
	.cfi_startproc
	pushq	%rbp
	.seh_pushreg	%rbp
	.cfi_def_cfa_offset 16
	.cfi_offset 6, -16
	movq	%rsp, %rbp
	.seh_setframe	%rbp, 0
	.cfi_def_cfa_register 6
	.seh_endprologue
	movq	%rcx, 16(%rbp)
	movl	%edx, 24(%rbp)
	.loc 1 12 8
	cmpl	$265, 24(%rbp)
	jne	.L2
	.loc 1 13 9
	movq	16(%rbp), %rax
	movss	(%rax), %xmm1
	.loc 1 13 19
	movss	.LC0(%rip), %xmm0
	addss	%xmm1, %xmm0
	movq	16(%rbp), %rax
	movss	%xmm0, (%rax)
	.loc 1 16 1
	jmp	.L6
.L2:
	.loc 1 14 13
	cmpl	$264, 24(%rbp)
	jne	.L6
	.loc 1 14 33 discriminator 1
	movq	16(%rbp), %rax
	movss	(%rax), %xmm0
	.loc 1 14 30 discriminator 1
	comiss	.LC1(%rip), %xmm0
	jnb	.L5
	.loc 1 16 1
	jmp	.L6
.L5:
	.loc 1 15 9
	movq	16(%rbp), %rax
	movss	(%rax), %xmm0
	.loc 1 15 19
	movss	.LC0(%rip), %xmm1
	subss	%xmm1, %xmm0
	movq	16(%rbp), %rax
	movss	%xmm0, (%rax)
.L6:
	.loc 1 16 1
	nop
	popq	%rbp
	.cfi_restore 6
	.cfi_def_cfa 7, 8
	ret
	.cfi_endproc
.LFE2:
	.seh_endproc
	.globl	handlePause
	.def	handlePause;	.scl	2;	.type	32;	.endef
	.seh_proc	handlePause
handlePause:
.LFB3:
	.loc 1 19 1
	.cfi_startproc
	pushq	%rbp
	.seh_pushreg	%rbp
	.cfi_def_cfa_offset 16
	.cfi_offset 6, -16
	movq	%rsp, %rbp
	.seh_setframe	%rbp, 0
	.cfi_def_cfa_register 6
	.seh_endprologue
	movq	%rcx, 16(%rbp)
	movl	%edx, 24(%rbp)
	.loc 1 20 8
	cmpl	$80, 24(%rbp)
	jne	.L9
	.loc 1 21 21
	movq	16(%rbp), %rax
	movzbl	(%rax), %eax
	movzbl	%al, %eax
	.loc 1 21 9
	testl	%eax, %eax
	setne	%al
	xorl	$1, %eax
	movzbl	%al, %eax
	.loc 1 21 19
	andl	$1, %eax
	.loc 1 21 17
	movq	16(%rbp), %rdx
	movb	%al, (%rdx)
.L9:
	.loc 1 22 1
	nop
	popq	%rbp
	.cfi_restore 6
	.cfi_def_cfa 7, 8
	ret
	.cfi_endproc
.LFE3:
	.seh_endproc
	.globl	handleLineCreation
	.def	handleLineCreation;	.scl	2;	.type	32;	.endef
	.seh_proc	handleLineCreation
handleLineCreation:
.LFB4:
	.loc 1 25 1
	.cfi_startproc
	pushq	%rbp
	.seh_pushreg	%rbp
	.cfi_def_cfa_offset 16
	.cfi_offset 6, -16
	pushq	%rbx
	.seh_pushreg	%rbx
	.cfi_def_cfa_offset 24
	.cfi_offset 3, -24
	subq	$72, %rsp
	.seh_stackalloc	72
	.cfi_def_cfa_offset 96
	leaq	64(%rsp), %rbp
	.seh_setframe	%rbp, 64
	.cfi_def_cfa 6, 32
	.seh_endprologue
	movq	%rcx, 32(%rbp)
	.loc 1 26 17
	movl	$0, -4(%rbp)
	.loc 1 29 9
	movl	-4(%rbp), %eax
	movl	%eax, %ecx
	call	IsMouseButtonPressed
	.loc 1 29 8 discriminator 1
	testb	%al, %al
	je	.L11
.LBB2:
	.loc 1 31 21
	movq	32(%rbp), %rax
	movq	%rax, currLnStart.0(%rip)
	.loc 1 32 45
	movl	-20(%rbp), %ecx
	movb	$-1, %cl
	movl	$-1, %eax
	movb	%al, %ch
	orl	$16711680, %ecx
	movl	%ecx, %eax
	orl	$-16777216, %eax
	movl	%eax, %ebx
	.loc 1 32 9
	movq	32(%rbp), %rdx
	movq	32(%rbp), %rax
	movl	%ebx, %r8d
	movq	%rax, %rcx
	call	DrawLineV
.LBE2:
	.loc 1 38 1
	jmp	.L13
.L11:
	.loc 1 34 14
	movl	-4(%rbp), %eax
	movl	%eax, %ecx
	call	IsMouseButtonDown
	.loc 1 34 13 discriminator 1
	testb	%al, %al
	je	.L13
.LBB3:
	.loc 1 36 48
	movb	$-1, %bl
	movl	$-1, %eax
	movb	%al, %bh
	movl	%ebx, %eax
	orl	$16711680, %eax
	movl	%eax, %ebx
	movl	%ebx, %eax
	orl	$-16777216, %eax
	movl	%eax, %ebx
	.loc 1 36 9
	movq	32(%rbp), %rdx
	movq	currLnStart.0(%rip), %rax
	movl	%ebx, %r8d
	movq	%rax, %rcx
	call	DrawLineV
.L13:
.LBE3:
	.loc 1 38 1
	nop
	addq	$72, %rsp
	popq	%rbx
	.cfi_restore 3
	popq	%rbp
	.cfi_restore 6
	.cfi_def_cfa 7, -56
	ret
	.cfi_endproc
.LFE4:
	.seh_endproc
.lcomm currLnStart.0,8,8
	.section .rdata,"dr"
	.align 4
.LC0:
	.long	1065353216
	.align 4
.LC1:
	.long	1073741824
	.text
.Letext0:
	.file 2 "C:/msys64/ucrt64/include/raylib.h"